; Function Attrs: mustprogress uwtable
define hidden void @_ZN4lean13elim_dead_letERKNS_4exprE(ptr dead_on_unwind noalias writable sret(%"class.lean::expr") align 8 %0, ptr noundef nonnull align 8 dereferenceable(8) %1) local_unnamed_addr #0 personality ptr @__gxx_personality_v0 {
  %3 = alloca %"class.lean::elim_dead_let_fn", align 8
  call void @llvm.lifetime.start.p0(i64 72, ptr nonnull %3) #14
  %4 = getelementptr inbounds nuw i8, ptr %3, i64 48
  store ptr %4, ptr %3, align 8, !tbaa !3
  %5 = getelementptr inbounds nuw i8, ptr %3, i64 8
  store i64 1, ptr %5, align 8, !tbaa !15
  %6 = getelementptr inbounds nuw i8, ptr %3, i64 16
  %7 = getelementptr inbounds nuw i8, ptr %3, i64 32
  call void @llvm.memset.p0.i64(ptr noundef nonnull align 8 dereferenceable(16) %6, i8 0, i64 16, i1 false)
  store float 1.000000e+00, ptr %7, align 8, !tbaa !16
  %8 = getelementptr inbounds nuw i8, ptr %3, i64 40
  call void @llvm.memset.p0.i64(ptr noundef nonnull align 8 dereferenceable(16) %8, i8 0, i64 16, i1 false)
  %9 = getelementptr inbounds nuw i8, ptr %3, i64 56
  %10 = load ptr, ptr @_ZN4leanL21g_elim_dead_let_freshE, align 8, !tbaa !17
  invoke void @_ZN4lean14name_generatorC1ERKNS_4nameE(ptr noundef nonnull align 8 dereferenceable(12) %9, ptr noundef nonnull align 8 dereferenceable(8) %10)
          to label %_ZN4lean16elim_dead_let_fnC2Ev.exit unwind label %11

common.resume:                                    ; preds = %50, %11
  %common.resume.op = phi { ptr, i32 } [ %12, %11 ], [ %51, %50 ]
  resume { ptr, i32 } %common.resume.op

11:                                               ; preds = %2
  %12 = landingpad { ptr, i32 }
          cleanup
  call void @_ZNSt10_HashtableIN4lean4nameES1_SaIS1_ENSt8__detail9_IdentityESt8equal_toIS1_ENS0_12name_hash_fnENS3_18_Mod_range_hashingENS3_20_Default_ranged_hashENS3_20_Prime_rehash_policyENS3_17_Hashtable_traitsILb1ELb1ELb1EEEED2Ev(ptr noundef nonnull align 8 dereferenceable(72) %3) #14
  br label %common.resume

_ZN4lean16elim_dead_let_fnC2Ev.exit:              ; preds = %2
  invoke void @_ZN4lean16elim_dead_let_fn5visitERKNS_4exprE(ptr dead_on_unwind writable sret(%"class.lean::expr") align 8 %0, ptr noundef nonnull align 8 dereferenceable(72) %3, ptr noundef nonnull align 8 dereferenceable(8) %1)
          to label %_ZN4lean16elim_dead_let_fnclERKNS_4exprE.exit unwind label %50

_ZN4lean16elim_dead_let_fnclERKNS_4exprE.exit:    ; preds = %_ZN4lean16elim_dead_let_fnC2Ev.exit
  %13 = load ptr, ptr %9, align 8, !tbaa !19
  %14 = ptrtoint ptr %13 to i64
  %15 = and i64 %14, 1
  %.not.i.i.i.i = icmp eq i64 %15, 0
  br i1 %.not.i.i.i.i, label %16, label %_ZN4lean16elim_dead_let_fnD2Ev.exit

16:                                               ; preds = %_ZN4lean16elim_dead_let_fnclERKNS_4exprE.exit
  %17 = load i32, ptr %13, align 4, !tbaa !21
  %18 = icmp sgt i32 %17, 1
  br i1 %18, label %19, label %21, !prof !24

19:                                               ; preds = %16
  %20 = add nsw i32 %17, -1
  store i32 %20, ptr %13, align 4, !tbaa !21
  br label %_ZN4lean16elim_dead_let_fnD2Ev.exit

21:                                               ; preds = %16
  %.not.i.i.i.i.i = icmp eq i32 %17, 0
  br i1 %.not.i.i.i.i.i, label %_ZN4lean16elim_dead_let_fnD2Ev.exit, label %22

22:                                               ; preds = %21
  invoke void @lean_dec_ref_cold(ptr noundef nonnull %13)
          to label %_ZN4lean16elim_dead_let_fnD2Ev.exit unwind label %23

23:                                               ; preds = %22
  %24 = landingpad { ptr, i32 }
          catch ptr null
  %25 = extractvalue { ptr, i32 } %24, 0
  call void @__clang_call_terminate(ptr %25) #15
  unreachable

_ZN4lean16elim_dead_let_fnD2Ev.exit:              ; preds = %_ZN4lean16elim_dead_let_fnclERKNS_4exprE.exit, %19, %21, %22
  %26 = load ptr, ptr %6, align 8, !tbaa !25
  %.not5.i.i.i = icmp eq ptr %26, null
  br i1 %.not5.i.i.i, label %_ZNSt10_HashtableIN4lean4nameES1_SaIS1_ENSt8__detail9_IdentityESt8equal_toIS1_ENS0_12name_hash_fnENS3_18_Mod_range_hashingENS3_20_Default_ranged_hashENS3_20_Prime_rehash_policyENS3_17_Hashtable_traitsILb1ELb1ELb1EEEE5clearEv.exit.i, label %.lr.ph.i.i.i

.lr.ph.i.i.i:                                     ; preds = %_ZN4lean16elim_dead_let_fnD2Ev.exit, %_ZNSt8__detail16_Hashtable_allocISaINS_10_Hash_nodeIN4lean4nameELb1EEEEE18_M_deallocate_nodeEPS4_.exit.i.i.i
  %.06.i.i.i = phi ptr [ %27, %_ZNSt8__detail16_Hashtable_allocISaINS_10_Hash_nodeIN4lean4nameELb1EEEEE18_M_deallocate_nodeEPS4_.exit.i.i.i ], [ %26, %_ZN4lean16elim_dead_let_fnD2Ev.exit ]
  %27 = load ptr, ptr %.06.i.i.i, align 8, !tbaa !26
  %28 = getelementptr inbounds nuw i8, ptr %.06.i.i.i, i64 8
  %29 = load ptr, ptr %28, align 8, !tbaa !19
  %30 = ptrtoint ptr %29 to i64
  %31 = and i64 %30, 1
  %.not.i.i.i.i.i.i = icmp eq i64 %31, 0
  br i1 %.not.i.i.i.i.i.i, label %32, label %_ZNSt8__detail16_Hashtable_allocISaINS_10_Hash_nodeIN4lean4nameELb1EEEEE18_M_deallocate_nodeEPS4_.exit.i.i.i

32:                                               ; preds = %.lr.ph.i.i.i
  %33 = load i32, ptr %29, align 4, !tbaa !21
  %34 = icmp sgt i32 %33, 1
  br i1 %34, label %35, label %37, !prof !24

35:                                               ; preds = %32
  %36 = add nsw i32 %33, -1
  store i32 %36, ptr %29, align 4, !tbaa !21
  br label %_ZNSt8__detail16_Hashtable_allocISaINS_10_Hash_nodeIN4lean4nameELb1EEEEE18_M_deallocate_nodeEPS4_.exit.i.i.i

37:                                               ; preds = %32
  %.not.i.i.i.i.i.i.i = icmp eq i32 %33, 0
  br i1 %.not.i.i.i.i.i.i.i, label %_ZNSt8__detail16_Hashtable_allocISaINS_10_Hash_nodeIN4lean4nameELb1EEEEE18_M_deallocate_nodeEPS4_.exit.i.i.i, label %38

38:                                               ; preds = %37
  invoke void @lean_dec_ref_cold(ptr noundef nonnull %29)
          to label %_ZNSt8__detail16_Hashtable_allocISaINS_10_Hash_nodeIN4lean4nameELb1EEEEE18_M_deallocate_nodeEPS4_.exit.i.i.i unwind label %39

39:                                               ; preds = %38
  %40 = landingpad { ptr, i32 }
          catch ptr null
  %41 = extractvalue { ptr, i32 } %40, 0
  call void @__clang_call_terminate(ptr %41) #15
  unreachable

_ZNSt8__detail16_Hashtable_allocISaINS_10_Hash_nodeIN4lean4nameELb1EEEEE18_M_deallocate_nodeEPS4_.exit.i.i.i: ; preds = %38, %37, %35, %.lr.ph.i.i.i
  call void @_ZdlPvm(ptr noundef nonnull %.06.i.i.i, i64 noundef 24) #16
  %.not.i.i.i = icmp eq ptr %27, null
  br i1 %.not.i.i.i, label %_ZNSt10_HashtableIN4lean4nameES1_SaIS1_ENSt8__detail9_IdentityESt8equal_toIS1_ENS0_12name_hash_fnENS3_18_Mod_range_hashingENS3_20_Default_ranged_hashENS3_20_Prime_rehash_policyENS3_17_Hashtable_traitsILb1ELb1ELb1EEEE5clearEv.exit.i, label %.lr.ph.i.i.i, !llvm.loop !27

_ZNSt10_HashtableIN4lean4nameES1_SaIS1_ENSt8__detail9_IdentityESt8equal_toIS1_ENS0_12name_hash_fnENS3_18_Mod_range_hashingENS3_20_Default_ranged_hashENS3_20_Prime_rehash_policyENS3_17_Hashtable_traitsILb1ELb1ELb1EEEE5clearEv.exit.i: ; preds = %_ZNSt8__detail16_Hashtable_allocISaINS_10_Hash_nodeIN4lean4nameELb1EEEEE18_M_deallocate_nodeEPS4_.exit.i.i.i, %_ZN4lean16elim_dead_let_fnD2Ev.exit
  %42 = load ptr, ptr %3, align 8, !tbaa !3
  %43 = load i64, ptr %5, align 8, !tbaa !15
  %44 = shl i64 %43, 3
  call void @llvm.memset.p0.i64(ptr align 8 %42, i8 0, i64 %44, i1 false)
  call void @llvm.memset.p0.i64(ptr noundef nonnull align 8 dereferenceable(16) %6, i8 0, i64 16, i1 false)
  %45 = load ptr, ptr %3, align 8, !tbaa !3
  %46 = icmp eq ptr %45, %4
  br i1 %46, label %_ZNSt10_HashtableIN4lean4nameES1_SaIS1_ENSt8__detail9_IdentityESt8equal_toIS1_ENS0_12name_hash_fnENS3_18_Mod_range_hashingENS3_20_Default_ranged_hashENS3_20_Prime_rehash_policyENS3_17_Hashtable_traitsILb1ELb1ELb1EEEED2Ev.exit, label %47

47:                                               ; preds = %_ZNSt10_HashtableIN4lean4nameES1_SaIS1_ENSt8__detail9_IdentityESt8equal_toIS1_ENS0_12name_hash_fnENS3_18_Mod_range_hashingENS3_20_Default_ranged_hashENS3_20_Prime_rehash_policyENS3_17_Hashtable_traitsILb1ELb1ELb1EEEE5clearEv.exit.i
  %48 = load i64, ptr %5, align 8, !tbaa !15
  %49 = shl i64 %48, 3
  call void @_ZdlPvm(ptr noundef %45, i64 noundef %49) #16
  br label %_ZNSt10_HashtableIN4lean4nameES1_SaIS1_ENSt8__detail9_IdentityESt8equal_toIS1_ENS0_12name_hash_fnENS3_18_Mod_range_hashingENS3_20_Default_ranged_hashENS3_20_Prime_rehash_policyENS3_17_Hashtable_traitsILb1ELb1ELb1EEEED2Ev.exit

_ZNSt10_HashtableIN4lean4nameES1_SaIS1_ENSt8__detail9_IdentityESt8equal_toIS1_ENS0_12name_hash_fnENS3_18_Mod_range_hashingENS3_20_Default_ranged_hashENS3_20_Prime_rehash_policyENS3_17_Hashtable_traitsILb1ELb1ELb1EEEED2Ev.exit: ; preds = %_ZNSt10_HashtableIN4lean4nameES1_SaIS1_ENSt8__detail9_IdentityESt8equal_toIS1_ENS0_12name_hash_fnENS3_18_Mod_range_hashingENS3_20_Default_ranged_hashENS3_20_Prime_rehash_policyENS3_17_Hashtable_traitsILb1ELb1ELb1EEEE5clearEv.exit.i, %47
  call void @llvm.lifetime.end.p0(i64 72, ptr nonnull %3) #14
  ret void

50:                                               ; preds = %_ZN4lean16elim_dead_let_fnC2Ev.exit
  %51 = landingpad { ptr, i32 }
          cleanup
  call void @_ZN4lean16elim_dead_let_fnD2Ev(ptr noundef nonnull align 8 dereferenceable(72) %3) #14
  call void @llvm.lifetime.end.p0(i64 72, ptr nonnull %3) #14
  br label %common.resume
}